target datalayout = "e-m:e-p270:32:32-p271:32:32-p272:64:64-i64:64-i128:128-f80:128-n8:16:32:64-S128"
target triple = "x86_64-pc-linux-gnu"

%"class.clang::SourceMgrAdapter" = type { ptr, ptr, i32, i32, i32, %"class.clang::CustomizableOptional", %"class.llvm::DenseMap" }
%"class.clang::CustomizableOptional" = type { %"class.clang::optional_detail::OptionalStorage" }
%"class.clang::optional_detail::OptionalStorage" = type { %"class.clang::FileMgr::MapEntryOptionalStorage" }
%"class.clang::FileMgr::MapEntryOptionalStorage" = type { %"class.clang::FileEntryRef" }
%"class.clang::FileEntryRef" = type { ptr }
%"class.llvm::DenseMap" = type <{ ptr, i32, i32, i32, [4 x i8] }>
%"struct.std::pair" = type <{ ptr, i32, [4 x i8] }>
%"class.clang::FileID" = type { i32 }
%"struct.std::pair.134" = type { %"struct.std::pair", %"class.clang::FileID", [4 x i8] }
%"struct.llvm::detail::DenseMapPair" = type { %"struct.std::pair.base.136", [4 x i8] }
%"struct.std::pair.base.136" = type { %"struct.std::pair", %"class.clang::FileID" }

; Function Attrs: mustprogress nounwind uwtable
define linkonce_odr hidden void @_ZNSt4pairIPKN4llvm9SourceMgrEjEC2IS3_jTnNSt9enable_ifIXaaclsr5_PCCPE22_MoveConstructiblePairIT_T0_EEclsr5_PCCPE30_ImplicitlyMoveConvertiblePairIS7_S8_EEEbE4typeELb1EEEOS7_OS8_(ptr noundef nonnull align 8 dereferenceable(12) %0, ptr noundef nonnull align 8 dereferenceable(8) %1, ptr noundef nonnull align 4 dereferenceable(4) %2) unnamed_addr #0 comdat align 2 {
  %4 = alloca ptr, align 8
  %5 = alloca ptr, align 8
  %6 = alloca ptr, align 8
  store ptr %0, ptr %4, align 8
  store ptr %1, ptr %5, align 8
  store ptr %2, ptr %6, align 8
  %7 = load ptr, ptr %4, align 8
  %8 = getelementptr inbounds nuw %"struct.std::pair", ptr %7, i32 0, i32 0
  %9 = load ptr, ptr %5, align 8
  %10 = load ptr, ptr %9, align 8
  store ptr %10, ptr %8, align 8
  %11 = getelementptr inbounds nuw %"struct.std::pair", ptr %7, i32 0, i32 1
  %12 = load ptr, ptr %6, align 8
  %13 = load i32, ptr %12, align 4
  store i32 %13, ptr %11, align 8
  ret void
}

; Function Attrs: mustprogress nounwind uwtable
define linkonce_odr hidden noundef i32 @_ZN4llvm12DenseMapInfoIjvE15getTombstoneKeyEv() #0 comdat align 2 {
  ret i32 -2
}

; Function Attrs: mustprogress nounwind uwtable
define linkonce_odr hidden noundef ptr @_ZN4llvm12DenseMapInfoIPKNS_9SourceMgrEvE15getTombstoneKeyEv() #0 comdat align 2 {
  %1 = alloca i64, align 8
  store i64 -2, ptr %1, align 8
  %2 = load i64, ptr %1, align 8
  %3 = shl i64 %2, 12
  store i64 %3, ptr %1, align 8
  %4 = load i64, ptr %1, align 8
  %5 = inttoptr i64 %4 to ptr
  ret ptr %5
}

; Function Attrs: mustprogress nounwind uwtable
define linkonce_odr { ptr, i32 } @_ZSt9make_pairIPKN4llvm9SourceMgrEjESt4pairINSt25__strip_reference_wrapperINSt5decayIT_E4typeEE6__typeENS5_INS6_IT0_E4typeEE6__typeEEOS7_OSC_(ptr noundef nonnull align 8 dereferenceable(8) %0, ptr noundef nonnull align 4 dereferenceable(4) %1) #0 comdat {
  %3 = alloca %"struct.std::pair", align 8
  %4 = alloca ptr, align 8
  %5 = alloca ptr, align 8
  store ptr %0, ptr %4, align 8
  store ptr %1, ptr %5, align 8
  %6 = load ptr, ptr %4, align 8
  %7 = load ptr, ptr %5, align 8
  call void @_ZNSt4pairIPKN4llvm9SourceMgrEjEC2IS3_jTnNSt9enable_ifIXaaclsr5_PCCPE22_MoveConstructiblePairIT_T0_EEclsr5_PCCPE30_ImplicitlyMoveConvertiblePairIS7_S8_EEEbE4typeELb1EEEOS7_OS8_(ptr noundef nonnull align 8 dereferenceable(12) %3, ptr noundef nonnull align 8 dereferenceable(8) %6, ptr noundef nonnull align 4 dereferenceable(4) %7)
  %8 = load { ptr, i32 }, ptr %3, align 8
  ret { ptr, i32 } %8
}

; Function Attrs: mustprogress nounwind uwtable
define linkonce_odr hidden noundef i32 @_ZN4llvm12DenseMapInfoIjvE11getEmptyKeyEv() #0 comdat align 2 {
  ret i32 -1
}

; Function Attrs: mustprogress nounwind uwtable
define linkonce_odr hidden noundef ptr @_ZN4llvm12DenseMapInfoIPKNS_9SourceMgrEvE11getEmptyKeyEv() #0 comdat align 2 {
  %1 = alloca i64, align 8
  store i64 -1, ptr %1, align 8
  %2 = load i64, ptr %1, align 8
  %3 = shl i64 %2, 12
  store i64 %3, ptr %1, align 8
  %4 = load i64, ptr %1, align 8
  %5 = inttoptr i64 %4 to ptr
  ret ptr %5
}

; Function Attrs: mustprogress nounwind uwtable
define linkonce_odr hidden noundef zeroext i1 @_ZN4llvm12DenseMapInfoIjvE7isEqualERKjS3_(ptr noundef nonnull align 4 dereferenceable(4) %0, ptr noundef nonnull align 4 dereferenceable(4) %1) #0 comdat align 2 {
  %3 = alloca ptr, align 8
  %4 = alloca ptr, align 8
  store ptr %0, ptr %3, align 8
  store ptr %1, ptr %4, align 8
  %5 = load ptr, ptr %3, align 8
  %6 = load i32, ptr %5, align 4
  %7 = load ptr, ptr %4, align 8
  %8 = load i32, ptr %7, align 4
  %9 = icmp eq i32 %6, %8
  ret i1 %9
}

; Function Attrs: mustprogress nounwind uwtable
define linkonce_odr hidden noundef zeroext i1 @_ZN4llvm12DenseMapInfoIPKNS_9SourceMgrEvE7isEqualES3_S3_(ptr noundef %0, ptr noundef %1) #0 comdat align 2 {
  %3 = alloca ptr, align 8
  %4 = alloca ptr, align 8
  store ptr %0, ptr %3, align 8
  store ptr %1, ptr %4, align 8
  %5 = load ptr, ptr %3, align 8
  %6 = load ptr, ptr %4, align 8
  %7 = icmp eq ptr %5, %6
  ret i1 %7
}

; Function Attrs: mustprogress nounwind uwtable
define linkonce_odr hidden noundef ptr @_ZNK4llvm8DenseMapISt4pairIPKNS_9SourceMgrEjEN5clang6FileIDENS_12DenseMapInfoIS5_vEENS_6detail12DenseMapPairIS5_S7_EEE10getBucketsEv(ptr noundef nonnull align 8 dereferenceable(20) %0) #0 comdat align 2 {
  %2 = alloca ptr, align 8
  store ptr %0, ptr %2, align 8
  %3 = load ptr, ptr %2, align 8
  %4 = getelementptr inbounds nuw %"class.llvm::DenseMap", ptr %3, i32 0, i32 0
  %5 = load ptr, ptr %4, align 8
  ret ptr %5
}

; Function Attrs: mustprogress nounwind uwtable
define linkonce_odr hidden { ptr, i32 } @_ZN4llvm12DenseMapInfoISt4pairIPKNS_9SourceMgrEjEvE15getTombstoneKeyEv() #0 comdat align 2 {
  %1 = alloca %"struct.std::pair", align 8
  %2 = alloca ptr, align 8
  %3 = alloca i32, align 4
  %4 = alloca { ptr, i32 }, align 8
  %5 = call noundef ptr @_ZN4llvm12DenseMapInfoIPKNS_9SourceMgrEvE15getTombstoneKeyEv()
  store ptr %5, ptr %2, align 8
  %6 = call noundef i32 @_ZN4llvm12DenseMapInfoIjvE15getTombstoneKeyEv()
  store i32 %6, ptr %3, align 4
  %7 = call { ptr, i32 } @_ZSt9make_pairIPKN4llvm9SourceMgrEjESt4pairINSt25__strip_reference_wrapperINSt5decayIT_E4typeEE6__typeENS5_INS6_IT0_E4typeEE6__typeEEOS7_OSC_(ptr noundef nonnull align 8 dereferenceable(8) %2, ptr noundef nonnull align 4 dereferenceable(4) %3)
  store { ptr, i32 } %7, ptr %4, align 8
  call void @llvm.memcpy.p0.p0.i64(ptr align 8 %1, ptr align 8 %4, i64 12, i1 false)
  %8 = load { ptr, i32 }, ptr %1, align 8
  ret { ptr, i32 } %8
}

; Function Attrs: mustprogress nounwind uwtable
define linkonce_odr hidden { ptr, i32 } @_ZN4llvm12DenseMapInfoISt4pairIPKNS_9SourceMgrEjEvE11getEmptyKeyEv() #0 comdat align 2 {
  %1 = alloca %"struct.std::pair", align 8
  %2 = alloca ptr, align 8
  %3 = alloca i32, align 4
  %4 = alloca { ptr, i32 }, align 8
  %5 = call noundef ptr @_ZN4llvm12DenseMapInfoIPKNS_9SourceMgrEvE11getEmptyKeyEv()
  store ptr %5, ptr %2, align 8
  %6 = call noundef i32 @_ZN4llvm12DenseMapInfoIjvE11getEmptyKeyEv()
  store i32 %6, ptr %3, align 4
  %7 = call { ptr, i32 } @_ZSt9make_pairIPKN4llvm9SourceMgrEjESt4pairINSt25__strip_reference_wrapperINSt5decayIT_E4typeEE6__typeENS5_INS6_IT0_E4typeEE6__typeEEOS7_OSC_(ptr noundef nonnull align 8 dereferenceable(8) %2, ptr noundef nonnull align 4 dereferenceable(4) %3)
  store { ptr, i32 } %7, ptr %4, align 8
  call void @llvm.memcpy.p0.p0.i64(ptr align 8 %1, ptr align 8 %4, i64 12, i1 false)
  %8 = load { ptr, i32 }, ptr %1, align 8
  ret { ptr, i32 } %8
}

; Function Attrs: mustprogress nounwind uwtable
define linkonce_odr hidden noundef i32 @_ZNK4llvm8DenseMapISt4pairIPKNS_9SourceMgrEjEN5clang6FileIDENS_12DenseMapInfoIS5_vEENS_6detail12DenseMapPairIS5_S7_EEE13getNumBucketsEv(ptr noundef nonnull align 8 dereferenceable(20) %0) #0 comdat align 2 {
  %2 = alloca ptr, align 8
  store ptr %0, ptr %2, align 8
  %3 = load ptr, ptr %2, align 8
  %4 = getelementptr inbounds nuw %"class.llvm::DenseMap", ptr %3, i32 0, i32 3
  %5 = load i32, ptr %4, align 8
  ret i32 %5
}

; Function Attrs: mustprogress nounwind uwtable
define linkonce_odr hidden noundef nonnull align 4 dereferenceable(4) ptr @_ZN4llvm6detail12DenseMapPairISt4pairIPKNS_9SourceMgrEjEN5clang6FileIDEE9getSecondEv(ptr noundef nonnull align 8 dereferenceable(20) %0) #0 comdat align 2 {
  %2 = alloca ptr, align 8
  store ptr %0, ptr %2, align 8
  %3 = load ptr, ptr %2, align 8
  %4 = getelementptr inbounds nuw %"struct.std::pair.134", ptr %3, i32 0, i32 1
  ret ptr %4
}

; Function Attrs: mustprogress nounwind uwtable
define linkonce_odr hidden noundef zeroext i1 @_ZN4llvm12DenseMapInfoISt4pairIPKNS_9SourceMgrEjEvE7isEqualERKS5_S8_(ptr noundef nonnull align 8 dereferenceable(12) %0, ptr noundef nonnull align 8 dereferenceable(12) %1) #0 comdat align 2 {
  %3 = alloca ptr, align 8
  %4 = alloca ptr, align 8
  store ptr %0, ptr %3, align 8
  store ptr %1, ptr %4, align 8
  %5 = load ptr, ptr %3, align 8
  %6 = getelementptr inbounds nuw %"struct.std::pair", ptr %5, i32 0, i32 0
  %7 = load ptr, ptr %6, align 8
  %8 = load ptr, ptr %4, align 8
  %9 = getelementptr inbounds nuw %"struct.std::pair", ptr %8, i32 0, i32 0
  %10 = load ptr, ptr %9, align 8
  %11 = call noundef zeroext i1 @_ZN4llvm12DenseMapInfoIPKNS_9SourceMgrEvE7isEqualES3_S3_(ptr noundef %7, ptr noundef %10)
  br i1 %11, label %12, label %18

12:                                               ; preds = %2
  %13 = load ptr, ptr %3, align 8
  %14 = getelementptr inbounds nuw %"struct.std::pair", ptr %13, i32 0, i32 1
  %15 = load ptr, ptr %4, align 8
  %16 = getelementptr inbounds nuw %"struct.std::pair", ptr %15, i32 0, i32 1
  %17 = call noundef zeroext i1 @_ZN4llvm12DenseMapInfoIjvE7isEqualERKjS3_(ptr noundef nonnull align 4 dereferenceable(4) %14, ptr noundef nonnull align 4 dereferenceable(4) %16)
  br label %18

18:                                               ; preds = %12, %2
  %19 = phi i1 [ false, %2 ], [ %17, %12 ]
  ret i1 %19
}

; Function Attrs: mustprogress nounwind uwtable
define linkonce_odr hidden noundef nonnull align 8 dereferenceable(12) ptr @_ZN4llvm6detail12DenseMapPairISt4pairIPKNS_9SourceMgrEjEN5clang6FileIDEE8getFirstEv(ptr noundef nonnull align 8 dereferenceable(20) %0) #0 comdat align 2 {
  %2 = alloca ptr, align 8
  store ptr %0, ptr %2, align 8
  %3 = load ptr, ptr %2, align 8
  %4 = getelementptr inbounds nuw %"struct.std::pair.134", ptr %3, i32 0, i32 0
  ret ptr %4
}

; Function Attrs: mustprogress nounwind uwtable
define linkonce_odr hidden noundef ptr @_ZN4llvm12DenseMapBaseINS_8DenseMapISt4pairIPKNS_9SourceMgrEjEN5clang6FileIDENS_12DenseMapInfoIS6_vEENS_6detail12DenseMapPairIS6_S8_EEEES6_S8_SA_SD_E13getBucketsEndEv(ptr noundef nonnull align 1 dereferenceable(1) %0) #0 comdat align 2 {
  %2 = alloca ptr, align 8
  store ptr %0, ptr %2, align 8
  %3 = load ptr, ptr %2, align 8
  %4 = call noundef ptr @_ZN4llvm12DenseMapBaseINS_8DenseMapISt4pairIPKNS_9SourceMgrEjEN5clang6FileIDENS_12DenseMapInfoIS6_vEENS_6detail12DenseMapPairIS6_S8_EEEES6_S8_SA_SD_E10getBucketsEv(ptr noundef nonnull align 1 dereferenceable(1) %3)
  %5 = call noundef i32 @_ZNK4llvm12DenseMapBaseINS_8DenseMapISt4pairIPKNS_9SourceMgrEjEN5clang6FileIDENS_12DenseMapInfoIS6_vEENS_6detail12DenseMapPairIS6_S8_EEEES6_S8_SA_SD_E13getNumBucketsEv(ptr noundef nonnull align 1 dereferenceable(1) %3)
  %6 = zext i32 %5 to i64
  %7 = getelementptr inbounds %"struct.llvm::detail::DenseMapPair", ptr %4, i64 %6
  ret ptr %7
}

; Function Attrs: mustprogress nounwind uwtable
define linkonce_odr hidden noundef ptr @_ZN4llvm12DenseMapBaseINS_8DenseMapISt4pairIPKNS_9SourceMgrEjEN5clang6FileIDENS_12DenseMapInfoIS6_vEENS_6detail12DenseMapPairIS6_S8_EEEES6_S8_SA_SD_E10getBucketsEv(ptr noundef nonnull align 1 dereferenceable(1) %0) #0 comdat align 2 {
  %2 = alloca ptr, align 8
  store ptr %0, ptr %2, align 8
  %3 = load ptr, ptr %2, align 8
  %4 = call noundef ptr @_ZNK4llvm8DenseMapISt4pairIPKNS_9SourceMgrEjEN5clang6FileIDENS_12DenseMapInfoIS5_vEENS_6detail12DenseMapPairIS5_S7_EEE10getBucketsEv(ptr noundef nonnull align 8 dereferenceable(20) %3)
  ret ptr %4
}

; Function Attrs: mustprogress nounwind uwtable
define linkonce_odr hidden { ptr, i32 } @_ZN4llvm12DenseMapBaseINS_8DenseMapISt4pairIPKNS_9SourceMgrEjEN5clang6FileIDENS_12DenseMapInfoIS6_vEENS_6detail12DenseMapPairIS6_S8_EEEES6_S8_SA_SD_E15getTombstoneKeyEv() #0 comdat align 2 {
  %1 = alloca %"struct.std::pair", align 8
  %2 = alloca { ptr, i32 }, align 8
  %3 = call { ptr, i32 } @_ZN4llvm12DenseMapInfoISt4pairIPKNS_9SourceMgrEjEvE15getTombstoneKeyEv()
  store { ptr, i32 } %3, ptr %2, align 8
  call void @llvm.memcpy.p0.p0.i64(ptr align 8 %1, ptr align 8 %2, i64 12, i1 false)
  %4 = load { ptr, i32 }, ptr %1, align 8
  ret { ptr, i32 } %4
}

; Function Attrs: mustprogress nounwind uwtable
define linkonce_odr hidden { ptr, i32 } @_ZN4llvm12DenseMapBaseINS_8DenseMapISt4pairIPKNS_9SourceMgrEjEN5clang6FileIDENS_12DenseMapInfoIS6_vEENS_6detail12DenseMapPairIS6_S8_EEEES6_S8_SA_SD_E11getEmptyKeyEv() #0 comdat align 2 {
  %1 = alloca %"struct.std::pair", align 8
  %2 = alloca { ptr, i32 }, align 8
  %3 = call { ptr, i32 } @_ZN4llvm12DenseMapInfoISt4pairIPKNS_9SourceMgrEjEvE11getEmptyKeyEv()
  store { ptr, i32 } %3, ptr %2, align 8
  call void @llvm.memcpy.p0.p0.i64(ptr align 8 %1, ptr align 8 %2, i64 12, i1 false)
  %4 = load { ptr, i32 }, ptr %1, align 8
  ret { ptr, i32 } %4
}

; Function Attrs: mustprogress nounwind uwtable
define linkonce_odr hidden noundef i32 @_ZNK4llvm12DenseMapBaseINS_8DenseMapISt4pairIPKNS_9SourceMgrEjEN5clang6FileIDENS_12DenseMapInfoIS6_vEENS_6detail12DenseMapPairIS6_S8_EEEES6_S8_SA_SD_E13getNumBucketsEv(ptr noundef nonnull align 1 dereferenceable(1) %0) #0 comdat align 2 {
  %2 = alloca ptr, align 8
  store ptr %0, ptr %2, align 8
  %3 = load ptr, ptr %2, align 8
  %4 = call noundef i32 @_ZNK4llvm8DenseMapISt4pairIPKNS_9SourceMgrEjEN5clang6FileIDENS_12DenseMapInfoIS5_vEENS_6detail12DenseMapPairIS5_S7_EEE13getNumBucketsEv(ptr noundef nonnull align 8 dereferenceable(20) %3)
  ret i32 %4
}

; Function Attrs: mustprogress nounwind uwtable
define linkonce_odr hidden void @_ZN4llvm12DenseMapBaseINS_8DenseMapISt4pairIPKNS_9SourceMgrEjEN5clang6FileIDENS_12DenseMapInfoIS6_vEENS_6detail12DenseMapPairIS6_S8_EEEES6_S8_SA_SD_E10destroyAllEv(ptr noundef nonnull align 1 dereferenceable(1) %0) #0 comdat align 2 {
  %2 = alloca ptr, align 8
  %3 = alloca %"struct.std::pair", align 8
  %4 = alloca { ptr, i32 }, align 8
  %5 = alloca %"struct.std::pair", align 8
  %6 = alloca { ptr, i32 }, align 8
  %7 = alloca ptr, align 8
  %8 = alloca ptr, align 8
  store ptr %0, ptr %2, align 8
  %9 = load ptr, ptr %2, align 8
  %10 = call noundef i32 @_ZNK4llvm12DenseMapBaseINS_8DenseMapISt4pairIPKNS_9SourceMgrEjEN5clang6FileIDENS_12DenseMapInfoIS6_vEENS_6detail12DenseMapPairIS6_S8_EEEES6_S8_SA_SD_E13getNumBucketsEv(ptr noundef nonnull align 1 dereferenceable(1) %9)
  %11 = icmp eq i32 %10, 0
  br i1 %11, label %12, label %13

12:                                               ; preds = %1
  br label %39

13:                                               ; preds = %1
  %14 = call { ptr, i32 } @_ZN4llvm12DenseMapBaseINS_8DenseMapISt4pairIPKNS_9SourceMgrEjEN5clang6FileIDENS_12DenseMapInfoIS6_vEENS_6detail12DenseMapPairIS6_S8_EEEES6_S8_SA_SD_E11getEmptyKeyEv()
  store { ptr, i32 } %14, ptr %4, align 8
  call void @llvm.memcpy.p0.p0.i64(ptr align 8 %3, ptr align 8 %4, i64 12, i1 false)
  %15 = call { ptr, i32 } @_ZN4llvm12DenseMapBaseINS_8DenseMapISt4pairIPKNS_9SourceMgrEjEN5clang6FileIDENS_12DenseMapInfoIS6_vEENS_6detail12DenseMapPairIS6_S8_EEEES6_S8_SA_SD_E15getTombstoneKeyEv()
  store { ptr, i32 } %15, ptr %6, align 8
  call void @llvm.memcpy.p0.p0.i64(ptr align 8 %5, ptr align 8 %6, i64 12, i1 false)
  %16 = call noundef ptr @_ZN4llvm12DenseMapBaseINS_8DenseMapISt4pairIPKNS_9SourceMgrEjEN5clang6FileIDENS_12DenseMapInfoIS6_vEENS_6detail12DenseMapPairIS6_S8_EEEES6_S8_SA_SD_E10getBucketsEv(ptr noundef nonnull align 1 dereferenceable(1) %9)
  store ptr %16, ptr %7, align 8
  %17 = call noundef ptr @_ZN4llvm12DenseMapBaseINS_8DenseMapISt4pairIPKNS_9SourceMgrEjEN5clang6FileIDENS_12DenseMapInfoIS6_vEENS_6detail12DenseMapPairIS6_S8_EEEES6_S8_SA_SD_E13getBucketsEndEv(ptr noundef nonnull align 1 dereferenceable(1) %9)
  store ptr %17, ptr %8, align 8
  br label %18

18:                                               ; preds = %36, %13
  %19 = load ptr, ptr %7, align 8
  %20 = load ptr, ptr %8, align 8
  %21 = icmp ne ptr %19, %20
  br i1 %21, label %22, label %39

22:                                               ; preds = %18
  %23 = load ptr, ptr %7, align 8
  %24 = call noundef nonnull align 8 dereferenceable(12) ptr @_ZN4llvm6detail12DenseMapPairISt4pairIPKNS_9SourceMgrEjEN5clang6FileIDEE8getFirstEv(ptr noundef nonnull align 8 dereferenceable(20) %23)
  %25 = call noundef zeroext i1 @_ZN4llvm12DenseMapInfoISt4pairIPKNS_9SourceMgrEjEvE7isEqualERKS5_S8_(ptr noundef nonnull align 8 dereferenceable(12) %24, ptr noundef nonnull align 8 dereferenceable(12) %3)
  br i1 %25, label %33, label %26

26:                                               ; preds = %22
  %27 = load ptr, ptr %7, align 8
  %28 = call noundef nonnull align 8 dereferenceable(12) ptr @_ZN4llvm6detail12DenseMapPairISt4pairIPKNS_9SourceMgrEjEN5clang6FileIDEE8getFirstEv(ptr noundef nonnull align 8 dereferenceable(20) %27)
  %29 = call noundef zeroext i1 @_ZN4llvm12DenseMapInfoISt4pairIPKNS_9SourceMgrEjEvE7isEqualERKS5_S8_(ptr noundef nonnull align 8 dereferenceable(12) %28, ptr noundef nonnull align 8 dereferenceable(12) %5)
  br i1 %29, label %33, label %30

30:                                               ; preds = %26
  %31 = load ptr, ptr %7, align 8
  %32 = call noundef nonnull align 4 dereferenceable(4) ptr @_ZN4llvm6detail12DenseMapPairISt4pairIPKNS_9SourceMgrEjEN5clang6FileIDEE9getSecondEv(ptr noundef nonnull align 8 dereferenceable(20) %31)
  br label %33

33:                                               ; preds = %30, %26, %22
  %34 = load ptr, ptr %7, align 8
  %35 = call noundef nonnull align 8 dereferenceable(12) ptr @_ZN4llvm6detail12DenseMapPairISt4pairIPKNS_9SourceMgrEjEN5clang6FileIDEE8getFirstEv(ptr noundef nonnull align 8 dereferenceable(20) %34)
  br label %36

36:                                               ; preds = %33
  %37 = load ptr, ptr %7, align 8
  %38 = getelementptr inbounds %"struct.llvm::detail::DenseMapPair", ptr %37, i32 1
  store ptr %38, ptr %7, align 8
  br label %18, !llvm.loop !8

39:                                               ; preds = %18, %12
  ret void
}

; Function Attrs: mustprogress nounwind uwtable
define linkonce_odr hidden void @_ZN4llvm8DenseMapISt4pairIPKNS_9SourceMgrEjEN5clang6FileIDENS_12DenseMapInfoIS5_vEENS_6detail12DenseMapPairIS5_S7_EEED2Ev(ptr noundef nonnull align 8 dereferenceable(20) %0) unnamed_addr #0 comdat align 2 {
  %2 = alloca ptr, align 8
  store ptr %0, ptr %2, align 8
  %3 = load ptr, ptr %2, align 8
  call void @_ZN4llvm12DenseMapBaseINS_8DenseMapISt4pairIPKNS_9SourceMgrEjEN5clang6FileIDENS_12DenseMapInfoIS6_vEENS_6detail12DenseMapPairIS6_S8_EEEES6_S8_SA_SD_E10destroyAllEv(ptr noundef nonnull align 1 dereferenceable(1) %3)
  %4 = getelementptr inbounds nuw %"class.llvm::DenseMap", ptr %3, i32 0, i32 0
  %5 = load ptr, ptr %4, align 8
  %6 = getelementptr inbounds nuw %"class.llvm::DenseMap", ptr %3, i32 0, i32 3
  %7 = load i32, ptr %6, align 8
  %8 = zext i32 %7 to i64
  %9 = mul i64 24, %8
  call void @_ZN4llvm17deallocate_bufferEPvmm(ptr noundef %5, i64 noundef %9, i64 noundef 8)
  ret void
}

; Function Attrs: mustprogress nounwind uwtable
define dso_local void @_ZN5clang16SourceMgrAdapterD2Ev(ptr noundef nonnull align 8 dereferenceable(64) %0) unnamed_addr #0 align 2 {
  %2 = alloca ptr, align 8
  store ptr %0, ptr %2, align 8
  %3 = load ptr, ptr %2, align 8
  %4 = getelementptr inbounds nuw %"class.clang::SourceMgrAdapter", ptr %3, i32 0, i32 6
  call void @_ZN4llvm8DenseMapISt4pairIPKNS_9SourceMgrEjEN5clang6FileIDENS_12DenseMapInfoIS5_vEENS_6detail12DenseMapPairIS5_S7_EEED2Ev(ptr noundef nonnull align 8 dereferenceable(20) %4) #8
  ret void
}