; Function Attrs: mustprogress nounwind uwtable
define dso_local void @_ZN5clang16SourceMgrAdapterD2Ev(ptr noundef nonnull readonly align 8 captures(none) dereferenceable(64) %0) unnamed_addr #0 align 2 {
  %2 = getelementptr inbounds nuw i8, ptr %0, i64 40
  %3 = load ptr, ptr %2, align 8
  %4 = getelementptr inbounds nuw i8, ptr %0, i64 56
  %5 = load i32, ptr %4, align 8
  %6 = zext i32 %5 to i64
  %7 = mul nuw nsw i64 %6, 24
  tail call void @_ZN4llvm17deallocate_bufferEPvmm(ptr noundef %3, i64 noundef %7, i64 noundef 8) #13
  ret void
}